target datalayout = "e-m:e-p270:32:32-p271:32:32-p272:64:64-i64:64-i128:128-f80:128-n8:16:32:64-S128"
target triple = "x86_64-pc-linux-gnu"

%struct.PJconsts = type { ptr, ptr, ptr, ptr, ptr, ptr, ptr, ptr, ptr, ptr, ptr, ptr, i32, ptr, ptr, ptr, ptr, ptr, ptr, ptr, ptr, double, double, double, double, double, double, double, double, double, double, double, double, double, double, double, double, double, double, double, double, double, double, i32, i32, i32, i32, i32, i32, i32, i32, i32, i32, i32, ptr, ptr, ptr, ptr, ptr, ptr, double, double, double, double, double, double, double, double, double, double, double, i32, [7 x double], i32, ptr, ptr, double, double, i32, [4 x i8], %"class.std::shared_ptr", i8, double, i8, %"class.std::__cxx11::basic_string", %"class.std::__cxx11::basic_string", %"class.std::__cxx11::basic_string", i8, %"class.std::vector", i32, %"class.std::vector.3", i32, i8, i8, i8, ptr }
%"class.std::shared_ptr" = type { %"class.std::__shared_ptr" }
%"class.std::__shared_ptr" = type { ptr, %"class.std::__shared_count" }
%"class.std::__shared_count" = type { ptr }
%"class.std::__cxx11::basic_string" = type { %"struct.std::__cxx11::basic_string<char>::_Alloc_hider", i64, %union.anon }
%"struct.std::__cxx11::basic_string<char>::_Alloc_hider" = type { ptr }
%union.anon = type { i64, [8 x i8] }
%"class.std::vector" = type { %"struct.std::_Vector_base" }
%"struct.std::_Vector_base" = type { %"struct.std::_Vector_base<osgeo::proj::operation::GridDescription, std::allocator<osgeo::proj::operation::GridDescription>>::_Vector_impl" }
%"struct.std::_Vector_base<osgeo::proj::operation::GridDescription, std::allocator<osgeo::proj::operation::GridDescription>>::_Vector_impl" = type { %"struct.std::_Vector_base<osgeo::proj::operation::GridDescription, std::allocator<osgeo::proj::operation::GridDescription>>::_Vector_impl_data" }
%"struct.std::_Vector_base<osgeo::proj::operation::GridDescription, std::allocator<osgeo::proj::operation::GridDescription>>::_Vector_impl_data" = type { ptr, ptr, ptr }
%"class.std::vector.3" = type { %"struct.std::_Vector_base.4" }
%"struct.std::_Vector_base.4" = type { %"struct.std::_Vector_base<PJCoordOperation, std::allocator<PJCoordOperation>>::_Vector_impl" }
%"struct.std::_Vector_base<PJCoordOperation, std::allocator<PJCoordOperation>>::_Vector_impl" = type { %"struct.std::_Vector_base<PJCoordOperation, std::allocator<PJCoordOperation>>::_Vector_impl_data" }
%"struct.std::_Vector_base<PJCoordOperation, std::allocator<PJCoordOperation>>::_Vector_impl_data" = type { ptr, ptr, ptr }
%"struct.(anonymous namespace)::pj_bertin1953" = type { double, double, double, double, double }
%struct.PJ_XY = type { double, double }
%struct.PJ_LP = type { double, double }

; Function Attrs: mustprogress uwtable
define internal { double, double } @_ZL20bertin1953_s_forward5PJ_LPP8PJconsts(double %0, double %1, ptr noundef %2) #0 {
  %4 = alloca %struct.PJ_XY, align 8
  %5 = alloca %struct.PJ_LP, align 8
  %6 = alloca ptr, align 8
  %7 = alloca ptr, align 8
  %8 = alloca double, align 8
  %9 = alloca double, align 8
  %10 = alloca double, align 8
  %11 = alloca double, align 8
  %12 = alloca double, align 8
  %13 = alloca double, align 8
  %14 = alloca double, align 8
  %15 = alloca double, align 8
  %16 = alloca double, align 8
  %17 = getelementptr inbounds nuw { double, double }, ptr %5, i32 0, i32 0
  store double %0, ptr %17, align 8
  %18 = getelementptr inbounds nuw { double, double }, ptr %5, i32 0, i32 1
  store double %1, ptr %18, align 8
  store ptr %2, ptr %6, align 8, !tbaa !3
  call void @llvm.memset.p0.i64(ptr align 8 %4, i8 0, i64 16, i1 false)
  call void @llvm.lifetime.start.p0(i64 8, ptr %7) #7
  %19 = load ptr, ptr %6, align 8, !tbaa !3
  %20 = getelementptr inbounds nuw %struct.PJconsts, ptr %19, i32 0, i32 11
  %21 = load ptr, ptr %20, align 8, !tbaa !43
  store ptr %21, ptr %7, align 8, !tbaa !41
  call void @llvm.lifetime.start.p0(i64 8, ptr %8) #7
  store double 1.400000e+00, ptr %8, align 8, !tbaa !54
  call void @llvm.lifetime.start.p0(i64 8, ptr %9) #7
  store double 1.200000e+01, ptr %9, align 8, !tbaa !54
  call void @llvm.lifetime.start.p0(i64 8, ptr %10) #7
  store double 1.680000e+00, ptr %10, align 8, !tbaa !54
  call void @llvm.lifetime.start.p0(i64 8, ptr %11) #7
  call void @llvm.lifetime.start.p0(i64 8, ptr %12) #7
  call void @llvm.lifetime.start.p0(i64 8, ptr %13) #7
  call void @llvm.lifetime.start.p0(i64 8, ptr %14) #7
  call void @llvm.lifetime.start.p0(i64 8, ptr %15) #7
  call void @llvm.lifetime.start.p0(i64 8, ptr %16) #7
  %22 = getelementptr inbounds nuw %struct.PJ_LP, ptr %5, i32 0, i32 0
  %23 = load double, ptr %22, align 8, !tbaa !55
  %24 = fadd double %23, 0xBFD26E40D7653223
  store double %24, ptr %22, align 8, !tbaa !55
  %25 = getelementptr inbounds nuw %struct.PJ_LP, ptr %5, i32 0, i32 1
  %26 = load double, ptr %25, align 8, !tbaa !57
  %27 = call double @cos(double noundef %26) #7, !tbaa !46
  store double %27, ptr %12, align 8, !tbaa !54
  %28 = getelementptr inbounds nuw %struct.PJ_LP, ptr %5, i32 0, i32 0
  %29 = load double, ptr %28, align 8, !tbaa !55
  %30 = call double @cos(double noundef %29) #7, !tbaa !46
  %31 = load double, ptr %12, align 8, !tbaa !54
  %32 = fmul double %30, %31
  store double %32, ptr %13, align 8, !tbaa !54
  %33 = getelementptr inbounds nuw %struct.PJ_LP, ptr %5, i32 0, i32 0
  %34 = load double, ptr %33, align 8, !tbaa !55
  %35 = call double @sin(double noundef %34) #7, !tbaa !46
  %36 = load double, ptr %12, align 8, !tbaa !54
  %37 = fmul double %35, %36
  store double %37, ptr %14, align 8, !tbaa !54
  %38 = getelementptr inbounds nuw %struct.PJ_LP, ptr %5, i32 0, i32 1
  %39 = load double, ptr %38, align 8, !tbaa !57
  %40 = call double @sin(double noundef %39) #7, !tbaa !46
  store double %40, ptr %15, align 8, !tbaa !54
  %41 = load double, ptr %15, align 8, !tbaa !54
  %42 = load ptr, ptr %7, align 8, !tbaa !41
  %43 = getelementptr inbounds nuw %"struct.(anonymous namespace)::pj_bertin1953", ptr %42, i32 0, i32 0
  %44 = load double, ptr %43, align 8, !tbaa !47
  %45 = load double, ptr %13, align 8, !tbaa !54
  %46 = load ptr, ptr %7, align 8, !tbaa !41
  %47 = getelementptr inbounds nuw %"struct.(anonymous namespace)::pj_bertin1953", ptr %46, i32 0, i32 1
  %48 = load double, ptr %47, align 8, !tbaa !49
  %49 = fmul double %45, %48
  %50 = call double @llvm.fmuladd.f64(double %41, double %44, double %49)
  store double %50, ptr %16, align 8, !tbaa !54
  %51 = load double, ptr %14, align 8, !tbaa !54
  %52 = load ptr, ptr %7, align 8, !tbaa !41
  %53 = getelementptr inbounds nuw %"struct.(anonymous namespace)::pj_bertin1953", ptr %52, i32 0, i32 2
  %54 = load double, ptr %53, align 8, !tbaa !50
  %55 = load double, ptr %16, align 8, !tbaa !54
  %56 = load ptr, ptr %7, align 8, !tbaa !41
  %57 = getelementptr inbounds nuw %"struct.(anonymous namespace)::pj_bertin1953", ptr %56, i32 0, i32 3
  %58 = load double, ptr %57, align 8, !tbaa !51
  %59 = fmul double %55, %58
  %60 = fneg double %59
  %61 = call double @llvm.fmuladd.f64(double %51, double %54, double %60)
  %62 = load double, ptr %13, align 8, !tbaa !54
  %63 = load ptr, ptr %7, align 8, !tbaa !41
  %64 = getelementptr inbounds nuw %"struct.(anonymous namespace)::pj_bertin1953", ptr %63, i32 0, i32 0
  %65 = load double, ptr %64, align 8, !tbaa !47
  %66 = load double, ptr %15, align 8, !tbaa !54
  %67 = load ptr, ptr %7, align 8, !tbaa !41
  %68 = getelementptr inbounds nuw %"struct.(anonymous namespace)::pj_bertin1953", ptr %67, i32 0, i32 1
  %69 = load double, ptr %68, align 8, !tbaa !49
  %70 = fmul double %66, %69
  %71 = fneg double %70
  %72 = call double @llvm.fmuladd.f64(double %62, double %65, double %71)
  %73 = call double @atan2(double noundef %61, double noundef %72) #7, !tbaa !46
  %74 = getelementptr inbounds nuw %struct.PJ_LP, ptr %5, i32 0, i32 0
  store double %73, ptr %74, align 8, !tbaa !55
  %75 = load double, ptr %16, align 8, !tbaa !54
  %76 = load ptr, ptr %7, align 8, !tbaa !41
  %77 = getelementptr inbounds nuw %"struct.(anonymous namespace)::pj_bertin1953", ptr %76, i32 0, i32 2
  %78 = load double, ptr %77, align 8, !tbaa !50
  %79 = load double, ptr %14, align 8, !tbaa !54
  %80 = load ptr, ptr %7, align 8, !tbaa !41
  %81 = getelementptr inbounds nuw %"struct.(anonymous namespace)::pj_bertin1953", ptr %80, i32 0, i32 3
  %82 = load double, ptr %81, align 8, !tbaa !51
  %83 = fmul double %79, %82
  %84 = call double @llvm.fmuladd.f64(double %75, double %78, double %83)
  store double %84, ptr %16, align 8, !tbaa !54
  %85 = load double, ptr %16, align 8, !tbaa !54
  %86 = call double @asin(double noundef %85) #7, !tbaa !46
  %87 = getelementptr inbounds nuw %struct.PJ_LP, ptr %5, i32 0, i32 1
  store double %86, ptr %87, align 8, !tbaa !57
  %88 = getelementptr inbounds nuw %struct.PJ_LP, ptr %5, i32 0, i32 0
  %89 = load double, ptr %88, align 8, !tbaa !55
  %90 = call noundef double @_Z6adjlond(double noundef %89)
  %91 = getelementptr inbounds nuw %struct.PJ_LP, ptr %5, i32 0, i32 0
  store double %90, ptr %91, align 8, !tbaa !55
  %92 = getelementptr inbounds nuw %struct.PJ_LP, ptr %5, i32 0, i32 0
  %93 = load double, ptr %92, align 8, !tbaa !55
  %94 = getelementptr inbounds nuw %struct.PJ_LP, ptr %5, i32 0, i32 1
  %95 = load double, ptr %94, align 8, !tbaa !57
  %96 = fadd double %93, %95
  %97 = load double, ptr %8, align 8, !tbaa !54
  %98 = fneg double %97
  %99 = fcmp olt double %96, %98
  br i1 %99, label %100, label %130

100:                                              ; preds = %3
  %101 = getelementptr inbounds nuw %struct.PJ_LP, ptr %5, i32 0, i32 0
  %102 = load double, ptr %101, align 8, !tbaa !55
  %103 = getelementptr inbounds nuw %struct.PJ_LP, ptr %5, i32 0, i32 1
  %104 = load double, ptr %103, align 8, !tbaa !57
  %105 = fsub double %102, %104
  %106 = fadd double %105, 1.600000e+00
  %107 = getelementptr inbounds nuw %struct.PJ_LP, ptr %5, i32 0, i32 0
  %108 = load double, ptr %107, align 8, !tbaa !55
  %109 = getelementptr inbounds nuw %struct.PJ_LP, ptr %5, i32 0, i32 1
  %110 = load double, ptr %109, align 8, !tbaa !57
  %111 = fadd double %108, %110
  %112 = load double, ptr %8, align 8, !tbaa !54
  %113 = fadd double %111, %112
  %114 = fmul double %106, %113
  %115 = fdiv double %114, 8.000000e+00
  store double %115, ptr %11, align 8, !tbaa !54
  %116 = load double, ptr %11, align 8, !tbaa !54
  %117 = getelementptr inbounds nuw %struct.PJ_LP, ptr %5, i32 0, i32 0
  %118 = load double, ptr %117, align 8, !tbaa !55
  %119 = fadd double %118, %116
  store double %119, ptr %117, align 8, !tbaa !55
  %120 = load double, ptr %11, align 8, !tbaa !54
  %121 = fmul double 8.000000e-01, %120
  %122 = getelementptr inbounds nuw %struct.PJ_LP, ptr %5, i32 0, i32 1
  %123 = load double, ptr %122, align 8, !tbaa !57
  %124 = fadd double %123, 0x3FF921FB54442D18
  %125 = call double @sin(double noundef %124) #7, !tbaa !46
  %126 = getelementptr inbounds nuw %struct.PJ_LP, ptr %5, i32 0, i32 1
  %127 = load double, ptr %126, align 8, !tbaa !57
  %128 = fneg double %121
  %129 = call double @llvm.fmuladd.f64(double %128, double %125, double %127)
  store double %129, ptr %126, align 8, !tbaa !57
  br label %130

130:                                              ; preds = %100, %3
  %131 = getelementptr inbounds nuw %struct.PJ_LP, ptr %5, i32 0, i32 1
  %132 = load double, ptr %131, align 8, !tbaa !57
  %133 = call double @cos(double noundef %132) #7, !tbaa !46
  store double %133, ptr %12, align 8, !tbaa !54
  %134 = load double, ptr %12, align 8, !tbaa !54
  %135 = getelementptr inbounds nuw %struct.PJ_LP, ptr %5, i32 0, i32 0
  %136 = load double, ptr %135, align 8, !tbaa !55
  %137 = fdiv double %136, 2.000000e+00
  %138 = call double @cos(double noundef %137) #7, !tbaa !46
  %139 = call double @llvm.fmuladd.f64(double %134, double %138, double 1.000000e+00)
  %140 = fdiv double 2.000000e+00, %139
  %141 = call double @sqrt(double noundef %140) #7, !tbaa !46
  store double %141, ptr %11, align 8, !tbaa !54
  %142 = load double, ptr %10, align 8, !tbaa !54
  %143 = load double, ptr %11, align 8, !tbaa !54
  %144 = fmul double %142, %143
  %145 = load double, ptr %12, align 8, !tbaa !54
  %146 = fmul double %144, %145
  %147 = getelementptr inbounds nuw %struct.PJ_LP, ptr %5, i32 0, i32 0
  %148 = load double, ptr %147, align 8, !tbaa !55
  %149 = fdiv double %148, 2.000000e+00
  %150 = call double @sin(double noundef %149) #7, !tbaa !46
  %151 = fmul double %146, %150
  %152 = getelementptr inbounds nuw %struct.PJ_XY, ptr %4, i32 0, i32 0
  store double %151, ptr %152, align 8, !tbaa !58
  %153 = load double, ptr %11, align 8, !tbaa !54
  %154 = getelementptr inbounds nuw %struct.PJ_LP, ptr %5, i32 0, i32 1
  %155 = load double, ptr %154, align 8, !tbaa !57
  %156 = call double @sin(double noundef %155) #7, !tbaa !46
  %157 = fmul double %153, %156
  %158 = getelementptr inbounds nuw %struct.PJ_XY, ptr %4, i32 0, i32 1
  store double %157, ptr %158, align 8, !tbaa !60
  %159 = getelementptr inbounds nuw %struct.PJ_LP, ptr %5, i32 0, i32 0
  %160 = load double, ptr %159, align 8, !tbaa !55
  %161 = getelementptr inbounds nuw %struct.PJ_LP, ptr %5, i32 0, i32 1
  %162 = load double, ptr %161, align 8, !tbaa !57
  %163 = fmul double %160, %162
  %164 = call double @cos(double noundef %163) #7, !tbaa !46
  %165 = fsub double 1.000000e+00, %164
  %166 = load double, ptr %9, align 8, !tbaa !54
  %167 = fdiv double %165, %166
  store double %167, ptr %11, align 8, !tbaa !54
  %168 = getelementptr inbounds nuw %struct.PJ_XY, ptr %4, i32 0, i32 1
  %169 = load double, ptr %168, align 8, !tbaa !60
  %170 = fcmp olt double %169, 0.000000e+00
  br i1 %170, label %171, label %177

171:                                              ; preds = %130
  %172 = load double, ptr %11, align 8, !tbaa !54
  %173 = fadd double 1.000000e+00, %172
  %174 = getelementptr inbounds nuw %struct.PJ_XY, ptr %4, i32 0, i32 0
  %175 = load double, ptr %174, align 8, !tbaa !58
  %176 = fmul double %175, %173
  store double %176, ptr %174, align 8, !tbaa !58
  br label %177

177:                                              ; preds = %171, %130
  %178 = getelementptr inbounds nuw %struct.PJ_XY, ptr %4, i32 0, i32 1
  %179 = load double, ptr %178, align 8, !tbaa !60
  %180 = fcmp ogt double %179, 0.000000e+00
  br i1 %180, label %181, label %193

181:                                              ; preds = %177
  %182 = load double, ptr %11, align 8, !tbaa !54
  %183 = fdiv double %182, 1.500000e+00
  %184 = getelementptr inbounds nuw %struct.PJ_XY, ptr %4, i32 0, i32 0
  %185 = load double, ptr %184, align 8, !tbaa !58
  %186 = fmul double %183, %185
  %187 = getelementptr inbounds nuw %struct.PJ_XY, ptr %4, i32 0, i32 0
  %188 = load double, ptr %187, align 8, !tbaa !58
  %189 = call double @llvm.fmuladd.f64(double %186, double %188, double 1.000000e+00)
  %190 = getelementptr inbounds nuw %struct.PJ_XY, ptr %4, i32 0, i32 1
  %191 = load double, ptr %190, align 8, !tbaa !60
  %192 = fmul double %191, %189
  store double %192, ptr %190, align 8, !tbaa !60
  br label %193

193:                                              ; preds = %181, %177
  call void @llvm.lifetime.end.p0(i64 8, ptr %16) #7
  call void @llvm.lifetime.end.p0(i64 8, ptr %15) #7
  call void @llvm.lifetime.end.p0(i64 8, ptr %14) #7
  call void @llvm.lifetime.end.p0(i64 8, ptr %13) #7
  call void @llvm.lifetime.end.p0(i64 8, ptr %12) #7
  call void @llvm.lifetime.end.p0(i64 8, ptr %11) #7
  call void @llvm.lifetime.end.p0(i64 8, ptr %10) #7
  call void @llvm.lifetime.end.p0(i64 8, ptr %9) #7
  call void @llvm.lifetime.end.p0(i64 8, ptr %8) #7
  call void @llvm.lifetime.end.p0(i64 8, ptr %7) #7
  %194 = load { double, double }, ptr %4, align 8
  ret { double, double } %194
}