; Function Attrs: mustprogress uwtable
define internal { double, double } @_ZL20bertin1953_s_forward5PJ_LPP8PJconsts(double %0, double %1, ptr noundef readonly captures(none) %2) #0 {
  %4 = getelementptr inbounds nuw i8, ptr %2, i64 88
  %5 = load ptr, ptr %4, align 8, !tbaa !3
  %6 = fadd double %0, 0xBFD26E40D7653223
  %7 = tail call double @cos(double noundef %1) #6, !tbaa !49
  %8 = tail call double @cos(double noundef %6) #6, !tbaa !49
  %9 = fmul double %7, %8
  %10 = tail call double @sin(double noundef %6) #6, !tbaa !49
  %11 = fmul double %7, %10
  %12 = tail call double @sin(double noundef %1) #6, !tbaa !49
  %13 = load double, ptr %5, align 8, !tbaa !38
  %14 = getelementptr inbounds nuw i8, ptr %5, i64 8
  %15 = load double, ptr %14, align 8, !tbaa !40
  %16 = fmul double %9, %15
  %17 = tail call double @llvm.fmuladd.f64(double %12, double %13, double %16)
  %18 = getelementptr inbounds nuw i8, ptr %5, i64 16
  %19 = load double, ptr %18, align 8, !tbaa !41
  %20 = getelementptr inbounds nuw i8, ptr %5, i64 24
  %21 = load double, ptr %20, align 8, !tbaa !50
  %22 = fneg double %21
  %23 = fmul double %17, %22
  %24 = tail call double @llvm.fmuladd.f64(double %11, double %19, double %23)
  %25 = fneg double %15
  %26 = fmul double %12, %25
  %27 = tail call double @llvm.fmuladd.f64(double %9, double %13, double %26)
  %28 = tail call double @atan2(double noundef %24, double noundef %27) #6, !tbaa !49
  %29 = fmul double %11, %21
  %30 = tail call double @llvm.fmuladd.f64(double %17, double %19, double %29)
  %31 = tail call double @asin(double noundef %30) #6, !tbaa !49
  %32 = tail call noundef double @_Z6adjlond(double noundef %28)
  %33 = fadd double %31, %32
  %34 = fcmp olt double %33, -1.400000e+00
  br i1 %34, label %35, label %46

35:                                               ; preds = %3
  %36 = fsub double %32, %31
  %37 = fadd double %36, 1.600000e+00
  %38 = fadd double %33, 1.400000e+00
  %39 = fmul double %37, %38
  %40 = fmul double %39, 1.250000e-01
  %41 = fadd double %32, %40
  %42 = fadd double %31, 0x3FF921FB54442D18
  %43 = tail call double @sin(double noundef %42) #6, !tbaa !49
  %44 = fmul double %40, -8.000000e-01
  %45 = tail call double @llvm.fmuladd.f64(double %44, double %43, double %31)
  br label %46

46:                                               ; preds = %35, %3
  %.sroa.0.0 = phi double [ %41, %35 ], [ %32, %3 ]
  %.sroa.16.0 = phi double [ %45, %35 ], [ %31, %3 ]
  %47 = tail call double @cos(double noundef %.sroa.16.0) #6, !tbaa !49
  %48 = fmul double %.sroa.0.0, 5.000000e-01
  %49 = tail call double @cos(double noundef %48) #6, !tbaa !49
  %50 = tail call double @llvm.fmuladd.f64(double %47, double %49, double 1.000000e+00)
  %51 = fdiv double 2.000000e+00, %50
  %52 = tail call double @sqrt(double noundef %51) #6, !tbaa !49
  %53 = fmul double %52, 1.680000e+00
  %54 = fmul double %47, %53
  %55 = tail call double @sin(double noundef %48) #6, !tbaa !49
  %56 = fmul double %55, %54
  %57 = tail call double @sin(double noundef %.sroa.16.0) #6, !tbaa !49
  %58 = fmul double %52, %57
  %59 = fmul double %.sroa.0.0, %.sroa.16.0
  %60 = tail call double @cos(double noundef %59) #6, !tbaa !49
  %61 = fsub double 1.000000e+00, %60
  %62 = fdiv double %61, 1.200000e+01
  %63 = fcmp olt double %58, 0.000000e+00
  %64 = fadd double %62, 1.000000e+00
  %65 = fmul double %56, %64
  %.sroa.051.0 = select i1 %63, double %65, double %56
  %66 = fcmp ogt double %58, 0.000000e+00
  br i1 %66, label %67, label %72

67:                                               ; preds = %46
  %68 = fdiv double %62, 1.500000e+00
  %69 = fmul double %68, %.sroa.051.0
  %70 = tail call double @llvm.fmuladd.f64(double %69, double %.sroa.051.0, double 1.000000e+00)
  %71 = fmul double %58, %70
  br label %72

72:                                               ; preds = %67, %46
  %.sroa.7.0 = phi double [ %71, %67 ], [ %58, %46 ]
  %.fca.0.insert = insertvalue { double, double } poison, double %.sroa.051.0, 0
  %.fca.1.insert = insertvalue { double, double } %.fca.0.insert, double %.sroa.7.0, 1
  ret { double, double } %.fca.1.insert
}